Certificate:
    Data:
        Version: 3 (0x2)
        Serial Number: 1 (0x1)
    Signature Algorithm: sha1WithRSAEncryption
        Issuer: C=ZH, ST=ZHEJIANG, L=HangZhou, O=BroadLink, OU=IT, CN=haha/emailAddress=test@broadlink.com.cn
        Validity
            Not Before: Jan  8 06:48:56 2016 GMT
            Not After : Jan  7 06:48:56 2017 GMT
        Subject: C=ZH, ST=ZHEJIANG, O=BroadLink, OU=support, CN=hehe/emailAddress=hehe@broadlink.com.cn
        Subject Public Key Info:
            Public Key Algorithm: rsaEncryption
                Public-Key: (1024 bit)
                Modulus:
                    00:c1:9c:15:7c:6b:0c:54:57:15:de:63:06:a4:20:
                    51:26:8c:30:0d:9d:a8:04:92:2a:17:de:79:a5:7b:
                    9a:94:45:e2:e7:ff:80:4e:e4:dd:ec:bc:64:d6:6f:
                    d8:5c:1b:d3:16:e7:f1:85:b0:64:e4:c2:7a:ca:42:
                    77:36:d0:98:ca:8a:00:ec:5e:54:d1:68:05:7b:e4:
                    6c:84:0a:4b:bb:8f:c4:93:cf:04:b5:ff:74:35:f7:
                    04:d0:95:cb:7d:b0:93:f0:96:a5:9d:06:ca:ae:08:
                    9c:bc:1f:33:b0:86:bc:48:38:3d:e5:29:68:ee:9a:
                    61:03:e9:c9:86:fb:38:52:f7
                Exponent: 65537 (0x10001)
        X509v3 extensions:
            X509v3 Basic Constraints: 
                CA:FALSE
            Netscape Comment: 
                OpenSSL Generated Certificate
            X509v3 Subject Key Identifier: 
                6F:D3:19:1F:01:6F:C0:71:A2:B6:DE:30:61:8B:DA:60:D0:CD:40:F6
            X509v3 Authority Key Identifier: 
                keyid:61:B6:FC:9E:89:2D:38:94:C6:BF:E6:51:3C:9A:E7:CC:04:3D:8E:4F

    Signature Algorithm: sha1WithRSAEncryption
         45:8a:45:a2:3f:bc:db:9d:75:e5:2b:45:37:33:e7:ac:86:96:
         c8:36:df:53:60:fb:30:d6:fc:2a:a1:48:14:41:2c:89:79:c5:
         76:2d:a4:c4:93:3c:3b:64:4a:dc:a6:5b:90:c9:cb:04:26:d2:
         4d:22:c3:a4:f6:20:6f:93:41:39:29:3e:64:f4:eb:b7:10:45:
         a2:e6:bb:4d:69:c0:6c:a7:39:29:2d:f4:a2:0d:d6:fa:22:47:
         69:1b:bb:f0:2d:b6:ee:21:d2:c7:7d:27:ea:b1:16:f4:cc:ee:
         92:aa:6c:b1:b2:e2:8a:ad:26:65:16:23:8d:c1:f8:d4:48:80:
         73:37
-----BEGIN CERTIFICATE-----
MIIC9jCCAl+gAwIBAgIBATANBgkqhkiG9w0BAQUFADCBiTELMAkGA1UEBhMCWkgx
ETAPBgNVBAgMCFpIRUpJQU5HMREwDwYDVQQHDAhIYW5nWmhvdTESMBAGA1UECgwJ
QnJvYWRMaW5rMQswCQYDVQQLDAJJVDENMAsGA1UEAwwEaGFoYTEkMCIGCSqGSIb3
DQEJARYVdGVzdEBicm9hZGxpbmsuY29tLmNuMB4XDTE2MDEwODA2NDg1NloXDTE3
MDEwNzA2NDg1NlowezELMAkGA1UEBhMCWkgxETAPBgNVBAgMCFpIRUpJQU5HMRIw
EAYDVQQKDAlCcm9hZExpbmsxEDAOBgNVBAsMB3N1cHBvcnQxDTALBgNVBAMMBGhl
aGUxJDAiBgkqhkiG9w0BCQEWFWhlaGVAYnJvYWRsaW5rLmNvbS5jbjCBnzANBgkq
hkiG9w0BAQEFAAOBjQAwgYkCgYEAwZwVfGsMVFcV3mMGpCBRJowwDZ2oBJIqF955
pXualEXi5/+ATuTd7Lxk1m/YXBvTFufxhbBk5MJ6ykJ3NtCYyooA7F5U0WgFe+Rs
hApLu4/Ek88Etf90NfcE0JXLfbCT8JalnQbKrgicvB8zsIa8SDg95Slo7pphA+nJ
hvs4UvcCAwEAAaN7MHkwCQYDVR0TBAIwADAsBglghkgBhvhCAQ0EHxYdT3BlblNT
TCBHZW5lcmF0ZWQgQ2VydGlmaWNhdGUwHQYDVR0OBBYEFG/TGR8Bb8BxorbeMGGL
2mDQzUD2MB8GA1UdIwQYMBaAFGG2/J6JLTiUxr/mUTya58wEPY5PMA0GCSqGSIb3
DQEBBQUAA4GBAEWKRaI/vNuddeUrRTcz56yGlsg231Ng+zDW/CqhSBRBLIl5xXYt
pMSTPDtkStymW5DJywQm0k0iw6T2IG+TQTkpPmT067cQRaLmu01pwGynOSkt9KIN
1voiR2kbu/Attu4h0sd9J+qxFvTM7pKqbLGy4oqtJmUWI43B+NRIgHM3
-----END CERTIFICATE-----
